; Function Attrs: mustprogress uwtable
define dso_local void @_ZN12b3DynamicBvh13extractLeavesEPK10b3DbvtNodeR20b3AlignedObjectArrayIS2_E(ptr noundef %0, ptr noundef nonnull align 8 captures(none) dereferenceable(25) %1) local_unnamed_addr #2 align 2 {
  %3 = getelementptr inbounds nuw i8, ptr %0, i64 48
  %4 = load ptr, ptr %3, align 8, !tbaa !32
  %.not6 = icmp eq ptr %4, null
  br i1 %.not6, label %tailrecurse._crit_edge, label %tailrecurse

tailrecurse:                                      ; preds = %2, %tailrecurse
  %5 = phi ptr [ %9, %tailrecurse ], [ %3, %2 ]
  %.tr7 = phi ptr [ %8, %tailrecurse ], [ %0, %2 ]
  %6 = getelementptr inbounds nuw i8, ptr %.tr7, i64 40
  %7 = load ptr, ptr %6, align 8, !tbaa !32
  tail call void @_ZN12b3DynamicBvh13extractLeavesEPK10b3DbvtNodeR20b3AlignedObjectArrayIS2_E(ptr noundef %7, ptr noundef nonnull align 8 dereferenceable(25) %1)
  %8 = load ptr, ptr %5, align 8, !tbaa !32
  %9 = getelementptr inbounds nuw i8, ptr %8, i64 48
  %10 = load ptr, ptr %9, align 8, !tbaa !32
  %.not = icmp eq ptr %10, null
  br i1 %.not, label %tailrecurse._crit_edge, label %tailrecurse

tailrecurse._crit_edge:                           ; preds = %tailrecurse, %2
  %.tr.lcssa = phi ptr [ %0, %2 ], [ %8, %tailrecurse ]
  %11 = getelementptr inbounds nuw i8, ptr %1, i64 4
  %12 = load i32, ptr %11, align 4, !tbaa !21
  %13 = getelementptr inbounds nuw i8, ptr %1, i64 8
  %14 = load i32, ptr %13, align 8, !tbaa !22
  %15 = icmp eq i32 %12, %14
  br i1 %15, label %16, label %_ZN20b3AlignedObjectArrayIPK10b3DbvtNodeE9push_backERKS2_.exit

16:                                               ; preds = %tailrecurse._crit_edge
  %.not.i.i = icmp eq i32 %12, 0
  %17 = shl nsw i32 %12, 1
  %18 = select i1 %.not.i.i, i32 1, i32 %17
  %19 = icmp slt i32 %12, %18
  br i1 %19, label %20, label %_ZN20b3AlignedObjectArrayIPK10b3DbvtNodeE9push_backERKS2_.exit

20:                                               ; preds = %16
  %.not.i.i.i = icmp eq i32 %18, 0
  br i1 %.not.i.i.i, label %_ZNK20b3AlignedObjectArrayIPK10b3DbvtNodeE4copyEiiPS2_.exit15.i.i, label %_ZN20b3AlignedObjectArrayIPK10b3DbvtNodeE8allocateEi.exit.i.i

_ZN20b3AlignedObjectArrayIPK10b3DbvtNodeE8allocateEi.exit.i.i: ; preds = %20
  %21 = sext i32 %18 to i64
  %22 = shl nsw i64 %21, 3
  %23 = tail call noundef ptr @_Z22b3AlignedAllocInternalmi(i64 noundef %22, i32 noundef 16)
  %24 = icmp eq ptr %23, null
  br i1 %24, label %_ZNK20b3AlignedObjectArrayIPK10b3DbvtNodeE4copyEiiPS2_.exit15.i.i, label %.split.i.i

.split.i.i:                                       ; preds = %_ZN20b3AlignedObjectArrayIPK10b3DbvtNodeE8allocateEi.exit.i.i
  %25 = load i32, ptr %11, align 4, !tbaa !21
  %26 = icmp sgt i32 %25, 0
  br i1 %26, label %.lr.ph.i.i.i, label %_ZNK20b3AlignedObjectArrayIPK10b3DbvtNodeE4copyEiiPS2_.exit.i.i

.lr.ph.i.i.i:                                     ; preds = %.split.i.i
  %27 = getelementptr inbounds nuw i8, ptr %1, i64 16
  %28 = load ptr, ptr %27, align 8, !tbaa !20
  %wide.trip.count.i.i.i = zext nneg i32 %25 to i64
  br label %29

29:                                               ; preds = %29, %.lr.ph.i.i.i
  %indvars.iv.i.i.i = phi i64 [ 0, %.lr.ph.i.i.i ], [ %indvars.iv.next.i.i.i, %29 ]
  %30 = getelementptr inbounds nuw ptr, ptr %23, i64 %indvars.iv.i.i.i
  %31 = getelementptr inbounds nuw ptr, ptr %28, i64 %indvars.iv.i.i.i
  %32 = load ptr, ptr %31, align 8, !tbaa !39
  store ptr %32, ptr %30, align 8, !tbaa !39
  %indvars.iv.next.i.i.i = add nuw nsw i64 %indvars.iv.i.i.i, 1
  %exitcond.not.i.i.i = icmp eq i64 %indvars.iv.next.i.i.i, %wide.trip.count.i.i.i
  br i1 %exitcond.not.i.i.i, label %_ZNK20b3AlignedObjectArrayIPK10b3DbvtNodeE4copyEiiPS2_.exit.i.i, label %29, !llvm.loop !76

_ZNK20b3AlignedObjectArrayIPK10b3DbvtNodeE4copyEiiPS2_.exit15.i.i: ; preds = %_ZN20b3AlignedObjectArrayIPK10b3DbvtNodeE8allocateEi.exit.i.i, %20
  tail call void (ptr, ...) @b3OutputErrorMessageVarArgsInternal(ptr noundef nonnull @.str, ptr noundef nonnull @.str.1, i32 noundef 301)
  tail call void (ptr, ...) @b3OutputErrorMessageVarArgsInternal(ptr noundef nonnull @.str.2)
  store i32 0, ptr %11, align 4, !tbaa !21
  br label %_ZNK20b3AlignedObjectArrayIPK10b3DbvtNodeE4copyEiiPS2_.exit.i.i

_ZNK20b3AlignedObjectArrayIPK10b3DbvtNodeE4copyEiiPS2_.exit.i.i: ; preds = %29, %_ZNK20b3AlignedObjectArrayIPK10b3DbvtNodeE4copyEiiPS2_.exit15.i.i, %.split.i.i
  %.pre3.i = phi i32 [ 0, %_ZNK20b3AlignedObjectArrayIPK10b3DbvtNodeE4copyEiiPS2_.exit15.i.i ], [ %25, %.split.i.i ], [ %25, %29 ]
  %.0.i18.i.i = phi ptr [ null, %_ZNK20b3AlignedObjectArrayIPK10b3DbvtNodeE4copyEiiPS2_.exit15.i.i ], [ %23, %.split.i.i ], [ %23, %29 ]
  %.0.i.i = phi i32 [ 0, %_ZNK20b3AlignedObjectArrayIPK10b3DbvtNodeE4copyEiiPS2_.exit15.i.i ], [ %18, %.split.i.i ], [ %18, %29 ]
  %33 = getelementptr inbounds nuw i8, ptr %1, i64 16
  %34 = load ptr, ptr %33, align 8, !tbaa !20
  %.not.i16.i.i = icmp eq ptr %34, null
  br i1 %.not.i16.i.i, label %_ZN20b3AlignedObjectArrayIPK10b3DbvtNodeE10deallocateEv.exit.i.i, label %35

35:                                               ; preds = %_ZNK20b3AlignedObjectArrayIPK10b3DbvtNodeE4copyEiiPS2_.exit.i.i
  %36 = getelementptr inbounds nuw i8, ptr %1, i64 24
  %37 = load i8, ptr %36, align 8, !tbaa !16, !range !30, !noundef !31
  %38 = trunc nuw i8 %37 to i1
  br i1 %38, label %39, label %_ZN20b3AlignedObjectArrayIPK10b3DbvtNodeE10deallocateEv.exit.i.i

39:                                               ; preds = %35
  tail call void @_Z21b3AlignedFreeInternalPv(ptr noundef nonnull %34)
  %.pre.pre.i = load i32, ptr %11, align 4, !tbaa !21
  br label %_ZN20b3AlignedObjectArrayIPK10b3DbvtNodeE10deallocateEv.exit.i.i

_ZN20b3AlignedObjectArrayIPK10b3DbvtNodeE10deallocateEv.exit.i.i: ; preds = %39, %35, %_ZNK20b3AlignedObjectArrayIPK10b3DbvtNodeE4copyEiiPS2_.exit.i.i
  %.pre.i = phi i32 [ %.pre.pre.i, %39 ], [ %.pre3.i, %35 ], [ %.pre3.i, %_ZNK20b3AlignedObjectArrayIPK10b3DbvtNodeE4copyEiiPS2_.exit.i.i ]
  %40 = getelementptr inbounds nuw i8, ptr %1, i64 24
  store i8 1, ptr %40, align 8, !tbaa !16
  store ptr %.0.i18.i.i, ptr %33, align 8, !tbaa !20
  store i32 %.0.i.i, ptr %13, align 8, !tbaa !22
  br label %_ZN20b3AlignedObjectArrayIPK10b3DbvtNodeE9push_backERKS2_.exit

_ZN20b3AlignedObjectArrayIPK10b3DbvtNodeE9push_backERKS2_.exit: ; preds = %tailrecurse._crit_edge, %16, %_ZN20b3AlignedObjectArrayIPK10b3DbvtNodeE10deallocateEv.exit.i.i
  %41 = phi i32 [ %.pre.i, %_ZN20b3AlignedObjectArrayIPK10b3DbvtNodeE10deallocateEv.exit.i.i ], [ %12, %16 ], [ %12, %tailrecurse._crit_edge ]
  %42 = getelementptr inbounds nuw i8, ptr %1, i64 16
  %43 = load ptr, ptr %42, align 8, !tbaa !20
  %44 = sext i32 %41 to i64
  %45 = getelementptr inbounds ptr, ptr %43, i64 %44
  store ptr %.tr.lcssa, ptr %45, align 8, !tbaa !39
  %46 = add nsw i32 %41, 1
  store i32 %46, ptr %11, align 4, !tbaa !21
  ret void
}